; Function Attrs: mustprogress nofree norecurse nosync nounwind willreturn memory(argmem: read) uwtable
define hidden noundef zeroext i1 @_ZNK4cvc58internal6theory5arith6linear14ArithVariables12var_iteratorneERKS5_(ptr nocapture noundef nonnull readonly align 8 dereferenceable(16) %this, ptr nocapture noundef nonnull readonly align 8 dereferenceable(16) %other) local_unnamed_addr #6 align 2 {
entry:
  %d_wrapped = getelementptr inbounds i8, ptr %this, i64 8
  %d_wrapped2 = getelementptr inbounds i8, ptr %other, i64 8
  %0 = load ptr, ptr %d_wrapped, align 8
  %1 = load ptr, ptr %d_wrapped2, align 8
  %cmp.i = icmp ne ptr %0, %1
  ret i1 %cmp.i
}